; Function Attrs: mustprogress uwtable
define dso_local noundef zeroext i1 @_ZN4pbrt10ThreadPool12WorkOrReturnEv(ptr noundef nonnull align 8 dereferenceable(128) %0) local_unnamed_addr #0 align 2 personality ptr @__gxx_personality_v0 {
  %2 = alloca %"class.std::unique_lock", align 8
  call void @llvm.lifetime.start.p0(i64 16, ptr nonnull %2) #25
  %3 = getelementptr inbounds nuw i8, ptr %0, i64 24
  store ptr %3, ptr %2, align 8, !tbaa !25
  %4 = getelementptr inbounds nuw i8, ptr %2, i64 8
  %5 = tail call noundef i32 @pthread_mutex_lock(ptr noundef nonnull align 8 dereferenceable(40) %3) #25
  %.not.i.i.i = icmp eq i32 %5, 0
  br i1 %.not.i.i.i, label %_ZNSt11unique_lockISt5mutexEC2ERS0_.exit, label %6

6:                                                ; preds = %1
  tail call void @_ZSt20__throw_system_errori(i32 noundef %5) #27
  unreachable

_ZNSt11unique_lockISt5mutexEC2ERS0_.exit:         ; preds = %1
  store i8 1, ptr %4, align 8, !tbaa !29
  %7 = getelementptr inbounds nuw i8, ptr %0, i64 72
  %.01126 = load ptr, ptr %7, align 8, !tbaa !82
  %.not27.not = icmp eq ptr %.01126, null
  br i1 %.not27.not, label %.critedge12, label %.lr.ph

.lr.ph:                                           ; preds = %_ZNSt11unique_lockISt5mutexEC2ERS0_.exit, %13
  %.01128 = phi ptr [ %.011, %13 ], [ %.01126, %_ZNSt11unique_lockISt5mutexEC2ERS0_.exit ]
  %8 = load ptr, ptr %.01128, align 8, !tbaa !55
  %9 = getelementptr inbounds nuw i8, ptr %8, i64 16
  %10 = load ptr, ptr %9, align 8
  %11 = invoke noundef zeroext i1 %10(ptr noundef nonnull align 8 dereferenceable(33) %.01128)
          to label %12 unwind label %.thread

12:                                               ; preds = %.lr.ph
  br i1 %11, label %.critedge, label %13

13:                                               ; preds = %12
  %14 = getelementptr inbounds nuw i8, ptr %.01128, i64 24
  %.011 = load ptr, ptr %14, align 8, !tbaa !82
  %.not.not = icmp eq ptr %.011, null
  br i1 %.not.not, label %.critedge12, label %.lr.ph, !llvm.loop !89

.thread:                                          ; preds = %.lr.ph
  %lpad.loopexit = landingpad { ptr, i32 }
          cleanup
  br label %17

15:                                               ; preds = %.invoke, %35, %.critedge
  %lpad.loopexit.split-lp = landingpad { ptr, i32 }
          cleanup
  %.pre = load i8, ptr %4, align 8, !tbaa !29, !range !41
  %16 = trunc nuw i8 %.pre to i1
  br i1 %16, label %17, label %_ZNSt11unique_lockISt5mutexED2Ev.exit

17:                                               ; preds = %.thread, %15
  %lpad.phi34 = phi { ptr, i32 } [ %lpad.loopexit, %.thread ], [ %lpad.loopexit.split-lp, %15 ]
  %18 = load ptr, ptr %2, align 8, !tbaa !25
  %.not.i.i = icmp eq ptr %18, null
  br i1 %.not.i.i, label %_ZNSt11unique_lockISt5mutexED2Ev.exit, label %19

19:                                               ; preds = %17
  %20 = call noundef i32 @pthread_mutex_unlock(ptr noundef nonnull align 8 dereferenceable(40) %18) #25
  br label %_ZNSt11unique_lockISt5mutexED2Ev.exit

_ZNSt11unique_lockISt5mutexED2Ev.exit:            ; preds = %15, %17, %19
  %lpad.phi33 = phi { ptr, i32 } [ %lpad.loopexit.split-lp, %15 ], [ %lpad.phi34, %17 ], [ %lpad.phi34, %19 ]
  call void @llvm.lifetime.end.p0(i64 16, ptr nonnull %2) #25
  resume { ptr, i32 } %lpad.phi33

.critedge:                                        ; preds = %12
  %21 = getelementptr inbounds nuw i8, ptr %.01128, i64 8
  %22 = load i32, ptr %21, align 8, !tbaa !84
  %23 = add nsw i32 %22, 1
  store i32 %23, ptr %21, align 8, !tbaa !84
  %24 = load ptr, ptr %.01128, align 8, !tbaa !55
  %25 = getelementptr inbounds nuw i8, ptr %24, i64 24
  %26 = load ptr, ptr %25, align 8
  invoke void %26(ptr noundef nonnull align 8 dereferenceable(33) %.01128, ptr noundef nonnull %2)
          to label %27 unwind label %15

27:                                               ; preds = %.critedge
  %28 = load ptr, ptr %2, align 8, !tbaa !25
  %.not.i = icmp eq ptr %28, null
  br i1 %.not.i, label %.invoke, label %29

29:                                               ; preds = %27
  %30 = load i8, ptr %4, align 8, !tbaa !29, !range !41, !noundef !78
  %31 = trunc nuw i8 %30 to i1
  br i1 %31, label %.invoke, label %32

32:                                               ; preds = %29
  %33 = call noundef i32 @pthread_mutex_lock(ptr noundef nonnull align 8 dereferenceable(40) %28) #25
  %.not.i.i13 = icmp eq i32 %33, 0
  br i1 %.not.i.i13, label %35, label %.invoke

.invoke:                                          ; preds = %32, %29, %27
  %34 = phi i32 [ 1, %27 ], [ 35, %29 ], [ %33, %32 ]
  invoke void @_ZSt20__throw_system_errori(i32 noundef %34) #27
          to label %.cont unwind label %15

.cont:                                            ; preds = %.invoke
  unreachable

35:                                               ; preds = %32
  store i8 1, ptr %4, align 8, !tbaa !29
  %36 = load i32, ptr %21, align 8, !tbaa !84
  %37 = add nsw i32 %36, -1
  store i32 %37, ptr %21, align 8, !tbaa !84
  %38 = load ptr, ptr %.01128, align 8, !tbaa !55
  %39 = getelementptr inbounds nuw i8, ptr %38, i64 16
  %40 = load ptr, ptr %39, align 8
  %41 = invoke noundef zeroext i1 %40(ptr noundef nonnull align 8 dereferenceable(33) %.01128)
          to label %42 unwind label %15

42:                                               ; preds = %35
  %43 = load i32, ptr %21, align 8
  %44 = icmp ne i32 %43, 0
  %.not20 = select i1 %41, i1 true, i1 %44
  br i1 %.not20, label %.critedge12, label %45

45:                                               ; preds = %42
  %46 = getelementptr inbounds nuw i8, ptr %0, i64 80
  call void @_ZNSt18condition_variable10notify_allEv(ptr noundef nonnull align 8 dereferenceable(48) %46) #25
  br label %.critedge12

.critedge12:                                      ; preds = %13, %_ZNSt11unique_lockISt5mutexEC2ERS0_.exit, %42, %45
  %.not23 = phi i1 [ true, %42 ], [ true, %45 ], [ false, %_ZNSt11unique_lockISt5mutexEC2ERS0_.exit ], [ false, %13 ]
  %47 = load i8, ptr %4, align 8, !tbaa !29, !range !41, !noundef !78
  %48 = trunc nuw i8 %47 to i1
  br i1 %48, label %49, label %_ZNSt11unique_lockISt5mutexED2Ev.exit18

49:                                               ; preds = %.critedge12
  %50 = load ptr, ptr %2, align 8, !tbaa !25
  %.not.i.i17 = icmp eq ptr %50, null
  br i1 %.not.i.i17, label %_ZNSt11unique_lockISt5mutexED2Ev.exit18, label %51

51:                                               ; preds = %49
  %52 = call noundef i32 @pthread_mutex_unlock(ptr noundef nonnull align 8 dereferenceable(40) %50) #25
  br label %_ZNSt11unique_lockISt5mutexED2Ev.exit18

_ZNSt11unique_lockISt5mutexED2Ev.exit18:          ; preds = %.critedge12, %49, %51
  call void @llvm.lifetime.end.p0(i64 16, ptr nonnull %2) #25
  ret i1 %.not23
}